; Function Attrs: mustprogress uwtable
define void @_Z6ps_rgbP8t_psdataPK5t_rgb(ptr noundef captures(none) %0, ptr noundef readonly captures(none) %1) local_unnamed_addr #3 {
  %3 = alloca [12 x i8], align 1
  %4 = load double, ptr %1, align 8, !tbaa !36
  %5 = fptrunc double %4 to float
  %6 = getelementptr inbounds nuw i8, ptr %1, i64 8
  %7 = load double, ptr %6, align 8, !tbaa !39
  %8 = fptrunc double %7 to float
  %9 = getelementptr inbounds nuw i8, ptr %1, i64 16
  %10 = load double, ptr %9, align 8, !tbaa !40
  %11 = fptrunc double %10 to float
  call void @llvm.lifetime.start.p0(i64 12, ptr nonnull %3) #18
  %12 = tail call fastcc noundef i64 @_ZL10search_colP8t_psdatafff(ptr noundef %0, float noundef %5, float noundef %8, float noundef %11)
  %13 = trunc i64 %12 to i32
  %14 = call i32 (ptr, ptr, ...) @sprintf(ptr noundef nonnull dereferenceable(1) %3, ptr noundef nonnull dereferenceable(1) @.str.26, i32 noundef %13) #18
  %.val.i = load ptr, ptr %0, align 8, !tbaa !9
  %15 = call i32 (ptr, ptr, ...) @fprintf(ptr noundef %.val.i, ptr noundef nonnull @.str.30, ptr noundef nonnull %3) #18
  call void @llvm.lifetime.end.p0(i64 12, ptr nonnull %3) #18
  ret void
}